target datalayout = "e-m:e-p270:32:32-p271:32:32-p272:64:64-i64:64-i128:128-f80:128-n8:16:32:64-S128"
target triple = "x86_64-pc-linux-gnu"

%struct.SDL_WaylandPrimarySelectionDevice = type { ptr, ptr, i32, ptr, ptr }

@WAYLAND_wl_proxy_get_id = external global ptr, align 8
@WAYLAND_wl_proxy_get_user_data = external global ptr, align 8
@.str.25 = private unnamed_addr constant [124 x i8] c". In zwp_primary_selection_device_v1_listener . primary_selection_device_handle_selection on primary_selection_offer 0x%08x\00", align 1

; Function Attrs: inlinehint nounwind uwtable
define internal ptr @zwp_primary_selection_offer_v1_get_user_data(ptr noundef %0) #2 {
  %2 = alloca ptr, align 8
  store ptr %0, ptr %2, align 8
  %3 = load ptr, ptr @WAYLAND_wl_proxy_get_user_data, align 8
  %4 = load ptr, ptr %2, align 8
  %5 = call ptr %3(ptr noundef %4)
  ret ptr %5
}

; Function Attrs: nounwind uwtable
define internal void @primary_selection_device_handle_selection(ptr noundef %0, ptr noundef %1, ptr noundef %2) #0 {
  %4 = alloca ptr, align 8
  %5 = alloca ptr, align 8
  %6 = alloca ptr, align 8
  %7 = alloca ptr, align 8
  %8 = alloca ptr, align 8
  store ptr %0, ptr %4, align 8
  store ptr %1, ptr %5, align 8
  store ptr %2, ptr %6, align 8
  call void @llvm.lifetime.start.p0(i64 8, ptr %7) #10
  %9 = load ptr, ptr %4, align 8
  store ptr %9, ptr %7, align 8
  call void @llvm.lifetime.start.p0(i64 8, ptr %8) #10
  store ptr null, ptr %8, align 8
  %10 = load ptr, ptr %6, align 8
  %11 = icmp ne ptr %10, null
  br i1 %11, label %12, label %15

12:                                               ; preds = %3
  %13 = load ptr, ptr %6, align 8
  %14 = call ptr @zwp_primary_selection_offer_v1_get_user_data(ptr noundef %13)
  store ptr %14, ptr %8, align 8
  br label %15

15:                                               ; preds = %12, %3
  %16 = load ptr, ptr %7, align 8
  %17 = getelementptr inbounds nuw %struct.SDL_WaylandPrimarySelectionDevice, ptr %16, i32 0, i32 4
  %18 = load ptr, ptr %17, align 8
  %19 = load ptr, ptr %8, align 8
  %20 = icmp ne ptr %18, %19
  br i1 %20, label %21, label %28

21:                                               ; preds = %15
  %22 = load ptr, ptr %7, align 8
  %23 = getelementptr inbounds nuw %struct.SDL_WaylandPrimarySelectionDevice, ptr %22, i32 0, i32 4
  %24 = load ptr, ptr %23, align 8
  call void @Wayland_primary_selection_offer_destroy(ptr noundef %24)
  %25 = load ptr, ptr %8, align 8
  %26 = load ptr, ptr %7, align 8
  %27 = getelementptr inbounds nuw %struct.SDL_WaylandPrimarySelectionDevice, ptr %26, i32 0, i32 4
  store ptr %25, ptr %27, align 8
  br label %28

28:                                               ; preds = %21, %15
  %29 = load ptr, ptr %6, align 8
  %30 = icmp ne ptr %29, null
  br i1 %30, label %31, label %35

31:                                               ; preds = %28
  %32 = load ptr, ptr @WAYLAND_wl_proxy_get_id, align 8
  %33 = load ptr, ptr %6, align 8
  %34 = call i32 %32(ptr noundef %33)
  br label %36

35:                                               ; preds = %28
  br label %36

36:                                               ; preds = %35, %31
  %37 = phi i32 [ %34, %31 ], [ -1, %35 ]
  call void (i32, ptr, ...) @SDL_LogTrace_REAL(i32 noundef 7, ptr noundef @.str.25, i32 noundef %37)
  call void @llvm.lifetime.end.p0(i64 8, ptr %8) #10
  call void @llvm.lifetime.end.p0(i64 8, ptr %7) #10
  ret void
}