; Function Attrs: nounwind uwtable
define internal void @primary_selection_device_handle_selection(ptr noundef captures(none) %0, ptr readnone captures(none) %1, ptr noundef %2) #0 {
  %.not = icmp eq ptr %2, null
  br i1 %.not, label %7, label %4

4:                                                ; preds = %3
  %5 = load ptr, ptr @WAYLAND_wl_proxy_get_user_data, align 8
  %6 = tail call ptr %5(ptr noundef nonnull %2) #12
  br label %7

7:                                                ; preds = %4, %3
  %.0 = phi ptr [ %6, %4 ], [ null, %3 ]
  %8 = getelementptr inbounds nuw i8, ptr %0, i64 32
  %9 = load ptr, ptr %8, align 8
  %.not12 = icmp eq ptr %9, %.0
  br i1 %.not12, label %11, label %10

10:                                               ; preds = %7
  tail call void @Wayland_primary_selection_offer_destroy(ptr noundef %9) #12
  store ptr %.0, ptr %8, align 8
  br label %11

11:                                               ; preds = %10, %7
  br i1 %.not, label %15, label %12

12:                                               ; preds = %11
  %13 = load ptr, ptr @WAYLAND_wl_proxy_get_id, align 8
  %14 = tail call i32 %13(ptr noundef nonnull %2) #12
  br label %15

15:                                               ; preds = %11, %12
  %16 = phi i32 [ %14, %12 ], [ -1, %11 ]
  tail call void (i32, ptr, ...) @SDL_LogTrace_REAL(i32 noundef 7, ptr noundef nonnull @.str.25, i32 noundef %16) #12
  ret void
}